target datalayout = "e-m:e-p270:32:32-p271:32:32-p272:64:64-i64:64-i128:128-f80:128-n8:16:32:64-S128"
target triple = "x86_64-pc-linux-gnu"

; Function Attrs: nounwind uwtable
define ptr @Abc_NtkHopRemoveLoops(ptr noundef %0, ptr noundef %1) #0 {
  %3 = alloca ptr, align 8
  %4 = alloca ptr, align 8
  %5 = alloca ptr, align 8
  %6 = alloca ptr, align 8
  store ptr %0, ptr %3, align 8, !tbaa !65
  store ptr %1, ptr %4, align 8, !tbaa !3
  call void @llvm.lifetime.start.p0(i64 8, ptr %5) #7
  call void @llvm.lifetime.start.p0(i64 8, ptr %6) #7
  br label %7

7:                                                ; preds = %11, %2
  %8 = load ptr, ptr %4, align 8, !tbaa !3
  %9 = call i32 @Abc_NtkHaigResetReprs(ptr noundef %8)
  %10 = icmp ne i32 %9, 0
  br i1 %10, label %11, label %15

11:                                               ; preds = %7
  %12 = load ptr, ptr %4, align 8, !tbaa !3
  store ptr %12, ptr %6, align 8, !tbaa !3
  %13 = call ptr @Abc_NtkHaigReconstruct(ptr noundef %12)
  store ptr %13, ptr %4, align 8, !tbaa !3
  %14 = load ptr, ptr %6, align 8, !tbaa !3
  call void @Hop_ManStop(ptr noundef %14)
  br label %7, !llvm.loop !79

15:                                               ; preds = %7
  %16 = load ptr, ptr %3, align 8, !tbaa !65
  %17 = load ptr, ptr %4, align 8, !tbaa !3
  %18 = call ptr @Abc_NtkHaigRecreateAig(ptr noundef %16, ptr noundef %17)
  store ptr %18, ptr %5, align 8, !tbaa !65
  %19 = load ptr, ptr %4, align 8, !tbaa !3
  call void @Hop_ManStop(ptr noundef %19)
  %20 = load ptr, ptr %5, align 8, !tbaa !65
  call void @llvm.lifetime.end.p0(i64 8, ptr %6) #7
  call void @llvm.lifetime.end.p0(i64 8, ptr %5) #7
  ret ptr %20
}