; Function Attrs: nounwind uwtable
define noundef ptr @Abc_NtkHopRemoveLoops(ptr noundef %0, ptr noundef %1) local_unnamed_addr #0 {
  %3 = tail call i32 @Abc_NtkHaigResetReprs(ptr noundef %1)
  %.not7 = icmp eq i32 %3, 0
  br i1 %.not7, label %._crit_edge, label %.lr.ph

.lr.ph:                                           ; preds = %2, %.lr.ph
  %.08 = phi ptr [ %4, %.lr.ph ], [ %1, %2 ]
  %4 = tail call ptr @Abc_NtkHaigReconstruct(ptr noundef %.08)
  tail call void @Hop_ManStop(ptr noundef %.08) #10
  %5 = tail call i32 @Abc_NtkHaigResetReprs(ptr noundef %4)
  %.not = icmp eq i32 %5, 0
  br i1 %.not, label %._crit_edge, label %.lr.ph, !llvm.loop !79

._crit_edge:                                      ; preds = %.lr.ph, %2
  %.0.lcssa = phi ptr [ %1, %2 ], [ %4, %.lr.ph ]
  %6 = tail call ptr @Abc_NtkHaigRecreateAig(ptr noundef %0, ptr noundef %.0.lcssa)
  tail call void @Hop_ManStop(ptr noundef %.0.lcssa) #10
  ret ptr %6
}